; Function Attrs: nounwind uwtable
define void @statevec_applyPauliProd(ptr noundef readonly byval(%struct.Qureg) align 8 captures(none) %0, ptr noundef readonly captures(none) %1, ptr noundef readonly captures(none) %2, i32 noundef %3) local_unnamed_addr #11 {
  %5 = icmp sgt i32 %3, 0
  br i1 %5, label %.lr.ph.preheader, label %._crit_edge

.lr.ph.preheader:                                 ; preds = %4
  %wide.trip.count = zext nneg i32 %3 to i64
  br label %.lr.ph

._crit_edge:                                      ; preds = %24, %4
  ret void

.lr.ph:                                           ; preds = %.lr.ph.preheader, %24
  %indvars.iv = phi i64 [ 0, %.lr.ph.preheader ], [ %indvars.iv.next, %24 ]
  %6 = getelementptr inbounds nuw i32, ptr %2, i64 %indvars.iv
  %7 = load i32, ptr %6, align 4, !tbaa !4
  %8 = icmp eq i32 %7, 1
  br i1 %8, label %9, label %12

9:                                                ; preds = %.lr.ph
  %10 = getelementptr inbounds nuw i32, ptr %1, i64 %indvars.iv
  %11 = load i32, ptr %10, align 4, !tbaa !4
  tail call void @statevec_pauliX(ptr noundef nonnull byval(%struct.Qureg) align 8 %0, i32 noundef %11) #22
  %.pr = load i32, ptr %6, align 4, !tbaa !4
  br label %12

12:                                               ; preds = %9, %.lr.ph
  %13 = phi i32 [ %.pr, %9 ], [ %7, %.lr.ph ]
  %14 = icmp eq i32 %13, 2
  br i1 %14, label %15, label %18

15:                                               ; preds = %12
  %16 = getelementptr inbounds nuw i32, ptr %1, i64 %indvars.iv
  %17 = load i32, ptr %16, align 4, !tbaa !4
  tail call void @statevec_pauliY(ptr noundef nonnull byval(%struct.Qureg) align 8 %0, i32 noundef %17) #22
  %.pre = load i32, ptr %6, align 4, !tbaa !4
  br label %18

18:                                               ; preds = %15, %12
  %19 = phi i32 [ %.pre, %15 ], [ %13, %12 ]
  %20 = icmp eq i32 %19, 3
  br i1 %20, label %21, label %24

21:                                               ; preds = %18
  %22 = getelementptr inbounds nuw i32, ptr %1, i64 %indvars.iv
  %23 = load i32, ptr %22, align 4, !tbaa !4
  tail call void @statevec_phaseShiftByTerm(ptr noundef nonnull byval(%struct.Qureg) align 8 %0, i32 noundef %23, double -1.000000e+00, double 0.000000e+00) #22
  br label %24

24:                                               ; preds = %18, %21
  %indvars.iv.next = add nuw nsw i64 %indvars.iv, 1
  %exitcond.not = icmp eq i64 %indvars.iv.next, %wide.trip.count
  br i1 %exitcond.not, label %._crit_edge, label %.lr.ph
}